target datalayout = "e-m:e-p270:32:32-p271:32:32-p272:64:64-i64:64-i128:128-f80:128-n8:16:32:64-S128"
target triple = "x86_64-pc-linux-gnu"

%struct._zend_executor_globals = type { %struct._zval_struct, %struct._zval_struct, [32 x ptr], ptr, ptr, %struct._zend_array, %struct._zend_array, ptr, i32, i8, %struct._zval_struct, i32, ptr, ptr, ptr, ptr, ptr, ptr, i64, ptr, ptr, i32, ptr, i32, i64, i32, i32, i32, i8, i8, %struct.zend_atomic_bool_s, %struct.zend_atomic_bool_s, ptr, i64, ptr, ptr, %struct._zend_array, %struct._zend_array, i32, i8, %struct._zval_struct, %struct._zval_struct, %struct._zend_stack, %struct._zend_stack, %struct._zend_stack, ptr, i32, i32, i64, ptr, ptr, ptr, %struct._zend_objects_store, %struct._zend_lazy_objects_store, ptr, ptr, ptr, [3 x %struct._zend_op], ptr, i8, i8, i64, i32, i32, ptr, [16 x %struct._HashTableIterator], ptr, %union._zend_function, %struct._zend_op, %struct._zend_array, i64, %struct.zend_get_gc_buffer, ptr, ptr, ptr, i64, i8, i32, ptr, ptr, i64, %struct._zend_call_stack, i64, i64, %struct._zend_strtod_state, [6 x ptr] }
%struct.zend_atomic_bool_s = type { i8 }
%struct._zval_struct = type { %union._zend_value, %union.anon, %union.anon.2 }
%union._zend_value = type { i64 }
%union.anon = type { i32 }
%union.anon.2 = type { i32 }
%struct._zend_stack = type { i32, i32, i32, ptr }
%struct._zend_objects_store = type { ptr, i32, i32, i32 }
%struct._zend_lazy_objects_store = type { %struct._zend_array }
%struct._HashTableIterator = type { ptr, i32, i32 }
%union._zend_function = type { %struct._zend_op_array }
%struct._zend_op_array = type { i8, [3 x i8], i32, ptr, ptr, ptr, i32, i32, ptr, ptr, ptr, ptr, i32, ptr, i32, i32, i32, ptr, ptr, ptr, ptr, ptr, i32, i32, ptr, ptr, ptr, i32, i32, i32, i32, ptr, ptr, [6 x ptr] }
%struct._zend_op = type { ptr, %union._znode_op, %union._znode_op, %union._znode_op, i32, i32, i8, i8, i8, i8 }
%union._znode_op = type { i32 }
%struct._zend_array = type { %struct._zend_refcounted_h, %union.anon.4, i32, %union.anon.6, i32, i32, i32, i32, i64, ptr }
%struct._zend_refcounted_h = type { i32, %union.anon.3 }
%union.anon.3 = type { i32 }
%union.anon.4 = type { i32 }
%union.anon.6 = type { ptr }
%struct.zend_get_gc_buffer = type { ptr, ptr, ptr }
%struct._zend_call_stack = type { ptr, i64 }
%struct._zend_strtod_state = type { [8 x ptr], ptr, ptr }
%struct._zend_phar_globals = type { %struct._zend_array, %struct._zend_array, ptr, %struct._zend_array, i32, ptr, i8, i8, i8, i8, i8, i8, i8, i8, i8, i8, i8, i8, ptr, ptr, ptr, ptr, ptr, ptr, ptr, ptr, ptr, ptr, ptr, ptr, ptr, ptr, ptr, ptr, ptr, ptr, ptr, ptr, ptr, ptr, ptr, i32, i8, ptr, i32, ptr, i32, ptr, i32, ptr, %struct._zend_array }
%struct._zend_object_handlers = type { i32, ptr, ptr, ptr, ptr, ptr, ptr, ptr, ptr, ptr, ptr, ptr, ptr, ptr, ptr, ptr, ptr, ptr, ptr, ptr, ptr, ptr, ptr, ptr, ptr }
%struct._zend_execute_data = type { ptr, ptr, ptr, ptr, %struct._zval_struct, ptr, ptr, ptr, ptr }
%struct._phar_archive_data = type { ptr, i32, ptr, i32, ptr, i32, [12 x i8], i64, %struct._zend_array, %struct._zend_array, %struct._zend_array, i32, i32, i32, ptr, ptr, i32, i32, i32, ptr, %struct._phar_metadata_tracker, i32, i16 }
%struct._phar_metadata_tracker = type { %struct._zval_struct, ptr }
%struct._zend_object = type { %struct._zend_refcounted_h, i32, i32, ptr, ptr, ptr, [1 x %struct._zval_struct] }

@executor_globals = external global %struct._zend_executor_globals, align 8
@phar_ce_PharException = internal global ptr null, align 8
@phar_globals = external global %struct._zend_phar_globals, align 8
@.str.9 = private unnamed_addr constant [3 x i8] c"%s\00", align 1
@spl_ce_BadMethodCallException = external global ptr, align 8
@.str.72 = private unnamed_addr constant [51 x i8] c"Cannot call method on an uninitialized Phar object\00", align 1
@.str.77 = private unnamed_addr constant [49 x i8] c"phar \22%s\22 is persistent, unable to copy on write\00", align 1
@.str.147 = private unnamed_addr constant [63 x i8] c"Write operations disabled by the php.ini setting phar.readonly\00", align 1
@.str.161 = private unnamed_addr constant [2 x i8] c"z\00", align 1

; Function Attrs: nounwind uwtable
define hidden void @zim_Phar_setMetadata(ptr noundef %0, ptr noundef %1) #0 {
  %3 = alloca ptr, align 8
  %4 = alloca ptr, align 8
  %5 = alloca ptr, align 8
  %6 = alloca ptr, align 8
  %7 = alloca i32, align 4
  %8 = alloca ptr, align 8
  %9 = alloca ptr, align 8
  store ptr %0, ptr %3, align 8, !tbaa !4
  store ptr %1, ptr %4, align 8, !tbaa !9
  call void @llvm.lifetime.start.p0(i64 8, ptr %5) #17
  call void @llvm.lifetime.start.p0(i64 8, ptr %6) #17
  %10 = load ptr, ptr %3, align 8, !tbaa !4
  %11 = getelementptr inbounds nuw %struct._zend_execute_data, ptr %10, i32 0, i32 4
  %12 = getelementptr inbounds nuw %struct._zval_struct, ptr %11, i32 0, i32 2
  %13 = load i32, ptr %12, align 4, !tbaa !13
  %14 = call i32 (i32, ptr, ...) @zend_parse_parameters(i32 noundef %13, ptr noundef @.str.161, ptr noundef %6)
  %15 = icmp eq i32 %14, -1
  br i1 %15, label %16, label %22

16:                                               ; preds = %2
  br label %17

17:                                               ; preds = %16
  %18 = load ptr, ptr getelementptr inbounds nuw (%struct._zend_executor_globals, ptr @executor_globals, i32 0, i32 54), align 8, !tbaa !14
  %19 = icmp ne ptr %18, null
  call void @llvm.assume(i1 %19)
  store i32 1, ptr %7, align 4
  br label %141

20:                                               ; No predecessors!
  br label %21

21:                                               ; preds = %20
  br label %22

22:                                               ; preds = %21, %2
  call void @llvm.lifetime.start.p0(i64 8, ptr %8) #17
  %23 = load ptr, ptr %3, align 8, !tbaa !4
  %24 = getelementptr inbounds nuw %struct._zend_execute_data, ptr %23, i32 0, i32 4
  store ptr %24, ptr %8, align 8, !tbaa !9
  call void @llvm.lifetime.start.p0(i64 8, ptr %9) #17
  %25 = load ptr, ptr %8, align 8, !tbaa !9
  %26 = getelementptr inbounds nuw %struct._zval_struct, ptr %25, i32 0, i32 0
  %27 = load ptr, ptr %26, align 8, !tbaa !13
  %28 = load ptr, ptr %8, align 8, !tbaa !9
  %29 = getelementptr inbounds nuw %struct._zval_struct, ptr %28, i32 0, i32 0
  %30 = load ptr, ptr %29, align 8, !tbaa !13
  %31 = getelementptr inbounds nuw %struct._zend_object, ptr %30, i32 0, i32 4
  %32 = load ptr, ptr %31, align 8, !tbaa !118
  %33 = getelementptr inbounds nuw %struct._zend_object_handlers, ptr %32, i32 0, i32 0
  %34 = load i32, ptr %33, align 8, !tbaa !121
  %35 = sext i32 %34 to i64
  %36 = sub i64 0, %35
  %37 = getelementptr inbounds i8, ptr %27, i64 %36
  store ptr %37, ptr %9, align 8, !tbaa !123
  %38 = load ptr, ptr %9, align 8, !tbaa !123
  %39 = load ptr, ptr %38, align 8, !tbaa !13
  %40 = icmp ne ptr %39, null
  br i1 %40, label %49, label %41

41:                                               ; preds = %22
  %42 = load ptr, ptr @spl_ce_BadMethodCallException, align 8, !tbaa !53
  %43 = call ptr (ptr, i64, ptr, ...) @zend_throw_exception_ex(ptr noundef %42, i64 noundef 0, ptr noundef @.str.72)
  br label %44

44:                                               ; preds = %41
  %45 = load ptr, ptr getelementptr inbounds nuw (%struct._zend_executor_globals, ptr @executor_globals, i32 0, i32 54), align 8, !tbaa !14
  %46 = icmp ne ptr %45, null
  call void @llvm.assume(i1 %46)
  store i32 1, ptr %7, align 4
  br label %140

47:                                               ; No predecessors!
  br label %48

48:                                               ; preds = %47
  br label %49

49:                                               ; preds = %48, %22
  %50 = load i8, ptr getelementptr inbounds nuw (%struct._zend_phar_globals, ptr @phar_globals, i32 0, i32 6), align 8, !tbaa !117, !range !50, !noundef !51
  %51 = trunc i8 %50 to i1
  br i1 %51, label %52, label %69

52:                                               ; preds = %49
  %53 = load ptr, ptr %9, align 8, !tbaa !123
  %54 = load ptr, ptr %53, align 8, !tbaa !13
  %55 = getelementptr inbounds nuw %struct._phar_archive_data, ptr %54, i32 0, i32 22
  %56 = load i16, ptr %55, align 4
  %57 = lshr i16 %56, 7
  %58 = and i16 %57, 1
  %59 = zext i16 %58 to i32
  %60 = icmp ne i32 %59, 0
  br i1 %60, label %69, label %61

61:                                               ; preds = %52
  %62 = load ptr, ptr @spl_ce_BadMethodCallException, align 8, !tbaa !53
  %63 = call ptr (ptr, i64, ptr, ...) @zend_throw_exception_ex(ptr noundef %62, i64 noundef 0, ptr noundef @.str.147)
  br label %64

64:                                               ; preds = %61
  %65 = load ptr, ptr getelementptr inbounds nuw (%struct._zend_executor_globals, ptr @executor_globals, i32 0, i32 54), align 8, !tbaa !14
  %66 = icmp ne ptr %65, null
  call void @llvm.assume(i1 %66)
  store i32 1, ptr %7, align 4
  br label %140

67:                                               ; No predecessors!
  br label %68

68:                                               ; preds = %67
  br label %69

69:                                               ; preds = %68, %52, %49
  %70 = load ptr, ptr %9, align 8, !tbaa !123
  %71 = load ptr, ptr %70, align 8, !tbaa !13
  %72 = getelementptr inbounds nuw %struct._phar_archive_data, ptr %71, i32 0, i32 22
  %73 = load i16, ptr %72, align 4
  %74 = lshr i16 %73, 8
  %75 = and i16 %74, 1
  %76 = zext i16 %75 to i32
  %77 = icmp ne i32 %76, 0
  br i1 %77, label %78, label %94

78:                                               ; preds = %69
  %79 = load ptr, ptr %9, align 8, !tbaa !123
  %80 = call i32 @phar_copy_on_write(ptr noundef %79)
  %81 = icmp eq i32 -1, %80
  br i1 %81, label %82, label %94

82:                                               ; preds = %78
  %83 = load ptr, ptr @phar_ce_PharException, align 8, !tbaa !53
  %84 = load ptr, ptr %9, align 8, !tbaa !123
  %85 = load ptr, ptr %84, align 8, !tbaa !13
  %86 = getelementptr inbounds nuw %struct._phar_archive_data, ptr %85, i32 0, i32 0
  %87 = load ptr, ptr %86, align 8, !tbaa !128
  %88 = call ptr (ptr, i64, ptr, ...) @zend_throw_exception_ex(ptr noundef %83, i64 noundef 0, ptr noundef @.str.77, ptr noundef %87)
  br label %89

89:                                               ; preds = %82
  %90 = load ptr, ptr getelementptr inbounds nuw (%struct._zend_executor_globals, ptr @executor_globals, i32 0, i32 54), align 8, !tbaa !14
  %91 = icmp ne ptr %90, null
  call void @llvm.assume(i1 %91)
  store i32 1, ptr %7, align 4
  br label %140

92:                                               ; No predecessors!
  br label %93

93:                                               ; preds = %92
  br label %94

94:                                               ; preds = %93, %78, %69
  %95 = load ptr, ptr %9, align 8, !tbaa !123
  %96 = load ptr, ptr %95, align 8, !tbaa !13
  %97 = getelementptr inbounds nuw %struct._phar_archive_data, ptr %96, i32 0, i32 22
  %98 = load i16, ptr %97, align 4
  %99 = lshr i16 %98, 8
  %100 = and i16 %99, 1
  %101 = zext i16 %100 to i32
  %102 = icmp ne i32 %101, 0
  %103 = xor i1 %102, true
  call void @llvm.assume(i1 %103)
  %104 = load ptr, ptr %9, align 8, !tbaa !123
  %105 = load ptr, ptr %104, align 8, !tbaa !13
  %106 = getelementptr inbounds nuw %struct._phar_archive_data, ptr %105, i32 0, i32 20
  %107 = load ptr, ptr %9, align 8, !tbaa !123
  %108 = load ptr, ptr %107, align 8, !tbaa !13
  %109 = getelementptr inbounds nuw %struct._phar_archive_data, ptr %108, i32 0, i32 22
  %110 = load i16, ptr %109, align 4
  %111 = lshr i16 %110, 8
  %112 = and i16 %111, 1
  %113 = zext i16 %112 to i32
  %114 = load ptr, ptr %6, align 8, !tbaa !9
  %115 = call i32 @serialize_metadata_or_throw(ptr noundef %106, i32 noundef %113, ptr noundef %114)
  %116 = icmp ne i32 %115, 0
  br i1 %116, label %117, label %123

117:                                              ; preds = %94
  br label %118

118:                                              ; preds = %117
  %119 = load ptr, ptr getelementptr inbounds nuw (%struct._zend_executor_globals, ptr @executor_globals, i32 0, i32 54), align 8, !tbaa !14
  %120 = icmp ne ptr %119, null
  call void @llvm.assume(i1 %120)
  store i32 1, ptr %7, align 4
  br label %140

121:                                              ; No predecessors!
  br label %122

122:                                              ; preds = %121
  br label %123

123:                                              ; preds = %122, %94
  %124 = load ptr, ptr %9, align 8, !tbaa !123
  %125 = load ptr, ptr %124, align 8, !tbaa !13
  %126 = getelementptr inbounds nuw %struct._phar_archive_data, ptr %125, i32 0, i32 22
  %127 = load i16, ptr %126, align 4
  %128 = and i16 %127, -3
  %129 = or i16 %128, 2
  store i16 %129, ptr %126, align 4
  %130 = load ptr, ptr %9, align 8, !tbaa !123
  %131 = load ptr, ptr %130, align 8, !tbaa !13
  call void @phar_flush(ptr noundef %131, ptr noundef %5)
  %132 = load ptr, ptr %5, align 8, !tbaa !49
  %133 = icmp ne ptr %132, null
  br i1 %133, label %134, label %139

134:                                              ; preds = %123
  %135 = load ptr, ptr @phar_ce_PharException, align 8, !tbaa !53
  %136 = load ptr, ptr %5, align 8, !tbaa !49
  %137 = call ptr (ptr, i64, ptr, ...) @zend_throw_exception_ex(ptr noundef %135, i64 noundef 0, ptr noundef @.str.9, ptr noundef %136)
  %138 = load ptr, ptr %5, align 8, !tbaa !49
  call void @_efree(ptr noundef %138)
  br label %139

139:                                              ; preds = %134, %123
  store i32 0, ptr %7, align 4
  br label %140

140:                                              ; preds = %139, %118, %89, %64, %44
  call void @llvm.lifetime.end.p0(i64 8, ptr %9) #17
  call void @llvm.lifetime.end.p0(i64 8, ptr %8) #17
  br label %141

141:                                              ; preds = %140, %17
  call void @llvm.lifetime.end.p0(i64 8, ptr %6) #17
  call void @llvm.lifetime.end.p0(i64 8, ptr %5) #17
  %142 = load i32, ptr %7, align 4
  switch i32 %142, label %144 [
    i32 0, label %143
    i32 1, label %143
  ]

143:                                              ; preds = %141, %141
  ret void

144:                                              ; preds = %141
  unreachable
}