; Function Attrs: nounwind uwtable
define hidden void @zim_Phar_setMetadata(ptr noundef readonly captures(none) %0, ptr readnone captures(none) %1) #0 {
  %3 = alloca ptr, align 8
  %4 = alloca ptr, align 8
  call void @llvm.lifetime.start.p0(i64 8, ptr nonnull %3) #20
  call void @llvm.lifetime.start.p0(i64 8, ptr nonnull %4) #20
  %5 = getelementptr inbounds nuw i8, ptr %0, i64 44
  %6 = load i32, ptr %5, align 4, !tbaa !8
  %7 = call i32 (i32, ptr, ...) @zend_parse_parameters(i32 noundef %6, ptr noundef nonnull @.str.161, ptr noundef nonnull %4) #20
  %8 = icmp eq i32 %7, -1
  br i1 %8, label %9, label %12

9:                                                ; preds = %2
  %10 = load ptr, ptr getelementptr inbounds nuw (i8, ptr @executor_globals, i64 960), align 8, !tbaa !9
  %11 = icmp ne ptr %10, null
  call void @llvm.assume(i1 %11)
  br label %71

12:                                               ; preds = %2
  %13 = getelementptr inbounds nuw i8, ptr %0, i64 32
  %14 = load ptr, ptr %13, align 8, !tbaa !8
  %15 = getelementptr inbounds nuw i8, ptr %14, i64 24
  %16 = load ptr, ptr %15, align 8, !tbaa !109
  %17 = load i32, ptr %16, align 8, !tbaa !112
  %18 = sext i32 %17 to i64
  %19 = sub nsw i64 0, %18
  %20 = getelementptr inbounds i8, ptr %14, i64 %19
  %21 = load ptr, ptr %20, align 8, !tbaa !8
  %.not = icmp eq ptr %21, null
  br i1 %.not, label %22, label %27

22:                                               ; preds = %12
  %23 = load ptr, ptr @spl_ce_BadMethodCallException, align 8, !tbaa !54
  %24 = call ptr (ptr, i64, ptr, ...) @zend_throw_exception_ex(ptr noundef %23, i64 noundef 0, ptr noundef nonnull @.str.72) #20
  %25 = load ptr, ptr getelementptr inbounds nuw (i8, ptr @executor_globals, i64 960), align 8, !tbaa !9
  %26 = icmp ne ptr %25, null
  call void @llvm.assume(i1 %26)
  br label %71

27:                                               ; preds = %12
  %28 = load i8, ptr getelementptr inbounds nuw (i8, ptr @phar_globals, i64 192), align 8, !tbaa !108, !range !48, !noundef !49
  %29 = trunc nuw i8 %28 to i1
  %30 = getelementptr inbounds nuw i8, ptr %21, i64 316
  %31 = load i16, ptr %30, align 4
  %32 = and i16 %31, 128
  %.not15 = icmp eq i16 %32, 0
  %or.cond = select i1 %29, i1 %.not15, i1 false
  br i1 %or.cond, label %33, label %._crit_edge

33:                                               ; preds = %27
  %34 = load ptr, ptr @spl_ce_BadMethodCallException, align 8, !tbaa !54
  %35 = call ptr (ptr, i64, ptr, ...) @zend_throw_exception_ex(ptr noundef %34, i64 noundef 0, ptr noundef nonnull @.str.147) #20
  %36 = load ptr, ptr getelementptr inbounds nuw (i8, ptr @executor_globals, i64 960), align 8, !tbaa !9
  %37 = icmp ne ptr %36, null
  call void @llvm.assume(i1 %37)
  br label %71

._crit_edge:                                      ; preds = %27
  %38 = and i16 %31, 256
  %.not16 = icmp eq i16 %38, 0
  br i1 %.not16, label %48, label %39

39:                                               ; preds = %._crit_edge
  %40 = call i32 @phar_copy_on_write(ptr noundef nonnull %20) #20
  %41 = icmp eq i32 %40, -1
  %.pre20 = load ptr, ptr %20, align 8, !tbaa !8
  br i1 %41, label %42, label %._crit_edge21

._crit_edge21:                                    ; preds = %39
  %.phi.trans.insert22 = getelementptr inbounds nuw i8, ptr %.pre20, i64 316
  %.pre23 = load i16, ptr %.phi.trans.insert22, align 4
  br label %48

42:                                               ; preds = %39
  %43 = load ptr, ptr @phar_ce_PharException, align 8, !tbaa !54
  %44 = load ptr, ptr %.pre20, align 8, !tbaa !117
  %45 = call ptr (ptr, i64, ptr, ...) @zend_throw_exception_ex(ptr noundef %43, i64 noundef 0, ptr noundef nonnull @.str.77, ptr noundef %44) #20
  %46 = load ptr, ptr getelementptr inbounds nuw (i8, ptr @executor_globals, i64 960), align 8, !tbaa !9
  %47 = icmp ne ptr %46, null
  call void @llvm.assume(i1 %47)
  br label %71

48:                                               ; preds = %._crit_edge21, %._crit_edge
  %49 = phi i16 [ %.pre23, %._crit_edge21 ], [ %31, %._crit_edge ]
  %50 = phi ptr [ %.pre20, %._crit_edge21 ], [ %21, %._crit_edge ]
  %51 = lshr i16 %49, 8
  %52 = and i16 %51, 1
  %53 = zext nneg i16 %52 to i32
  %.not17 = icmp eq i16 %52, 0
  call void @llvm.assume(i1 %.not17)
  %54 = getelementptr inbounds nuw i8, ptr %50, i64 288
  %55 = load ptr, ptr %4, align 8, !tbaa !60
  %56 = call fastcc i32 @serialize_metadata_or_throw(ptr noundef nonnull %54, i32 noundef %53, ptr noundef %55)
  %.not18 = icmp eq i32 %56, 0
  br i1 %.not18, label %60, label %57

57:                                               ; preds = %48
  %58 = load ptr, ptr getelementptr inbounds nuw (i8, ptr @executor_globals, i64 960), align 8, !tbaa !9
  %59 = icmp ne ptr %58, null
  call void @llvm.assume(i1 %59)
  br label %71

60:                                               ; preds = %48
  %61 = load ptr, ptr %20, align 8, !tbaa !8
  %62 = getelementptr inbounds nuw i8, ptr %61, i64 316
  %63 = load i16, ptr %62, align 4
  %64 = or i16 %63, 2
  store i16 %64, ptr %62, align 4
  %65 = load ptr, ptr %20, align 8, !tbaa !8
  call void @phar_flush(ptr noundef %65, ptr noundef nonnull %3) #20
  %66 = load ptr, ptr %3, align 8, !tbaa !47
  %.not19 = icmp eq ptr %66, null
  br i1 %.not19, label %71, label %67

67:                                               ; preds = %60
  %68 = load ptr, ptr @phar_ce_PharException, align 8, !tbaa !54
  %69 = call ptr (ptr, i64, ptr, ...) @zend_throw_exception_ex(ptr noundef %68, i64 noundef 0, ptr noundef nonnull @.str.9, ptr noundef nonnull %66) #20
  %70 = load ptr, ptr %3, align 8, !tbaa !47
  call void @_efree(ptr noundef %70) #20
  br label %71

71:                                               ; preds = %22, %33, %42, %57, %67, %60, %9
  call void @llvm.lifetime.end.p0(i64 8, ptr nonnull %4) #20
  call void @llvm.lifetime.end.p0(i64 8, ptr nonnull %3) #20
  ret void
}